; Function Attrs: mustprogress uwtable
define internal void @_ZN3gmx12_GLOBAL__N_126HelpExportReStructuredText18finishModuleExportEv(ptr nocapture noundef nonnull align 8 dereferenceable(48) %0) unnamed_addr #1 align 2 personality ptr @__gxx_personality_v0 {
  %2 = alloca %"class.std::__cxx11::basic_string", align 8
  %3 = getelementptr inbounds i8, ptr %0, i64 32
  %4 = load ptr, ptr %3, align 8
  tail call void @_ZN3gmx10TextWriter5closeEv(ptr noundef nonnull align 8 dereferenceable(8) %4)
  %5 = load ptr, ptr %3, align 8
  store ptr null, ptr %3, align 8
  %.not.i.i = icmp eq ptr %5, null
  br i1 %.not.i.i, label %_ZNSt10unique_ptrIN3gmx10TextWriterESt14default_deleteIS1_EE5resetEPS1_.exit, label %_ZNKSt14default_deleteIN3gmx10TextWriterEEclEPS1_.exit.i.i

_ZNKSt14default_deleteIN3gmx10TextWriterEEclEPS1_.exit.i.i: ; preds = %1
  tail call void @_ZN3gmx10TextWriterD1Ev(ptr noundef nonnull align 8 dereferenceable(8) %5) #19
  tail call void @_ZdlPv(ptr noundef nonnull %5) #20
  br label %_ZNSt10unique_ptrIN3gmx10TextWriterESt14default_deleteIS1_EE5resetEPS1_.exit

_ZNSt10unique_ptrIN3gmx10TextWriterESt14default_deleteIS1_EE5resetEPS1_.exit: ; preds = %1, %_ZNKSt14default_deleteIN3gmx10TextWriterEEclEPS1_.exit.i.i
  %6 = getelementptr inbounds i8, ptr %0, i64 40
  %7 = load ptr, ptr %6, align 8
  %8 = getelementptr inbounds i8, ptr %0, i64 16
  %9 = load ptr, ptr %8, align 8
  %10 = tail call noundef ptr @_ZNKSt7__cxx1112basic_stringIcSt11char_traitsIcESaIcEE5c_strEv(ptr noundef nonnull align 8 dereferenceable(32) %9) #19
  %11 = load ptr, ptr %8, align 8
  %12 = tail call noundef ptr @_ZNKSt7__cxx1112basic_stringIcSt11char_traitsIcESaIcEE5c_strEv(ptr noundef nonnull align 8 dereferenceable(32) %11) #19
  call void (ptr, ptr, ...) @_ZN3gmx12formatStringB5cxx11EPKcz(ptr dead_on_unwind nonnull writable sret(%"class.std::__cxx11::basic_string") align 8 %2, ptr noundef nonnull @.str.45, ptr noundef %10, ptr noundef %12, ptr noundef nonnull @_ZN3gmx12_GLOBAL__N_112RootHelpText5titleE)
  invoke void @_ZN3gmx10TextWriter9writeLineERKNSt7__cxx1112basic_stringIcSt11char_traitsIcESaIcEEE(ptr noundef nonnull align 8 dereferenceable(8) %7, ptr noundef nonnull align 8 dereferenceable(32) %2)
          to label %13 unwind label %17

13:                                               ; preds = %_ZNSt10unique_ptrIN3gmx10TextWriterESt14default_deleteIS1_EE5resetEPS1_.exit
  call void @_ZNSt7__cxx1112basic_stringIcSt11char_traitsIcESaIcEED1Ev(ptr noundef nonnull align 8 dereferenceable(32) %2) #19
  %14 = load ptr, ptr %6, align 8
  call void @_ZN3gmx10TextWriter9writeLineEPKc(ptr noundef nonnull align 8 dereferenceable(8) %14, ptr noundef nonnull @.str.46)
  %15 = load ptr, ptr %6, align 8
  call void @_ZN3gmx10TextWriter5closeEv(ptr noundef nonnull align 8 dereferenceable(8) %15)
  %16 = load ptr, ptr %6, align 8
  store ptr null, ptr %6, align 8
  %.not.i.i2 = icmp eq ptr %16, null
  br i1 %.not.i.i2, label %_ZNSt10unique_ptrIN3gmx10TextWriterESt14default_deleteIS1_EE5resetEPS1_.exit4, label %_ZNKSt14default_deleteIN3gmx10TextWriterEEclEPS1_.exit.i.i3

_ZNKSt14default_deleteIN3gmx10TextWriterEEclEPS1_.exit.i.i3: ; preds = %13
  call void @_ZN3gmx10TextWriterD1Ev(ptr noundef nonnull align 8 dereferenceable(8) %16) #19
  call void @_ZdlPv(ptr noundef nonnull %16) #20
  br label %_ZNSt10unique_ptrIN3gmx10TextWriterESt14default_deleteIS1_EE5resetEPS1_.exit4

_ZNSt10unique_ptrIN3gmx10TextWriterESt14default_deleteIS1_EE5resetEPS1_.exit4: ; preds = %13, %_ZNKSt14default_deleteIN3gmx10TextWriterEEclEPS1_.exit.i.i3
  ret void

17:                                               ; preds = %_ZNSt10unique_ptrIN3gmx10TextWriterESt14default_deleteIS1_EE5resetEPS1_.exit
  %18 = landingpad { ptr, i32 }
          cleanup
  call void @_ZNSt7__cxx1112basic_stringIcSt11char_traitsIcESaIcEED1Ev(ptr noundef nonnull align 8 dereferenceable(32) %2) #19
  resume { ptr, i32 } %18
}